; Function Attrs: mustprogress uwtable
define noundef nonnull align 8 dereferenceable(64) ptr @_ZNK6icu_7713ListFormatter6formatEPKNS_13UnicodeStringEiRS1_R10UErrorCode(ptr noundef nonnull readonly align 8 captures(none) dereferenceable(24) %0, ptr noundef %1, i32 noundef %2, ptr noundef nonnull returned align 8 dereferenceable(64) %3, ptr noundef nonnull align 4 dereferenceable(4) %4) local_unnamed_addr #1 align 2 personality ptr @__gxx_personality_v0 {
  %6 = alloca %"class.icu_77::FormattedList", align 8
  %7 = alloca %"class.icu_77::UnicodeStringAppendable", align 8
  call void @llvm.lifetime.start.p0(i64 24, ptr nonnull %6) #19
  call void @_ZNK6icu_7713ListFormatter20formatStringsToValueEPKNS_13UnicodeStringEiR10UErrorCode(ptr dead_on_unwind nonnull writable sret(%"class.icu_77::FormattedList") align 8 %6, ptr noundef nonnull readonly align 8 dereferenceable(24) %0, ptr noundef %1, i32 noundef %2, ptr noundef nonnull align 4 dereferenceable(4) %4)
  call void @llvm.lifetime.start.p0(i64 16, ptr nonnull %7) #19
  store ptr getelementptr inbounds nuw inrange(-16, 64) (i8, ptr @_ZTVN6icu_7723UnicodeStringAppendableE, i64 16), ptr %7, align 8, !tbaa !15
  %8 = getelementptr inbounds nuw i8, ptr %7, i64 8
  store ptr %3, ptr %8, align 8, !tbaa !57
  %9 = load i32, ptr %4, align 4, !tbaa !13
  %10 = icmp slt i32 %9, 1
  br i1 %10, label %11, label %_ZNK6icu_7713ListFormatter6formatEPKNS_13UnicodeStringEiRS1_iRiR10UErrorCode.exit

11:                                               ; preds = %5
  %12 = getelementptr inbounds nuw i8, ptr %6, i64 8
  %13 = load ptr, ptr %12, align 8, !tbaa !17
  %14 = icmp eq ptr %13, null
  br i1 %14, label %15, label %18

15:                                               ; preds = %11
  %16 = getelementptr inbounds nuw i8, ptr %6, i64 16
  %17 = load i32, ptr %16, align 8, !tbaa !21
  store i32 %17, ptr %4, align 4, !tbaa !13
  br label %_ZNK6icu_7713ListFormatter6formatEPKNS_13UnicodeStringEiRS1_iRiR10UErrorCode.exit

18:                                               ; preds = %11
  %19 = load ptr, ptr %13, align 8, !tbaa !15
  %20 = getelementptr inbounds nuw i8, ptr %19, i64 32
  %21 = load ptr, ptr %20, align 8
  %22 = invoke noundef nonnull align 8 dereferenceable(8) ptr %21(ptr noundef nonnull align 8 dereferenceable(300) %13, ptr noundef nonnull align 8 dereferenceable(8) %7, ptr noundef nonnull align 4 dereferenceable(4) %4)
          to label %_ZNK6icu_7713ListFormatter6formatEPKNS_13UnicodeStringEiRS1_iRiR10UErrorCode.exit unwind label %23

23:                                               ; preds = %18
  %24 = landingpad { ptr, i32 }
          cleanup
  call void @_ZN6icu_7723UnicodeStringAppendableD1Ev(ptr noundef nonnull align 8 dereferenceable(16) %7) #19
  call void @llvm.lifetime.end.p0(i64 16, ptr nonnull %7) #19
  call void @_ZN6icu_7713FormattedListD1Ev(ptr noundef nonnull align 8 dereferenceable(20) %6) #19
  call void @llvm.lifetime.end.p0(i64 24, ptr nonnull %6) #19
  resume { ptr, i32 } %24

_ZNK6icu_7713ListFormatter6formatEPKNS_13UnicodeStringEiRS1_iRiR10UErrorCode.exit: ; preds = %5, %15, %18
  call void @_ZN6icu_7723UnicodeStringAppendableD1Ev(ptr noundef nonnull align 8 dereferenceable(16) %7) #19
  call void @llvm.lifetime.end.p0(i64 16, ptr nonnull %7) #19
  call void @_ZN6icu_7713FormattedListD1Ev(ptr noundef nonnull align 8 dereferenceable(20) %6) #19
  call void @llvm.lifetime.end.p0(i64 24, ptr nonnull %6) #19
  ret ptr %3
}